; ModuleID = '11/65.c'
source_filename = "11/65.c"
target datalayout = "e-m:e-p270:32:32-p271:32:32-p272:64:64-i64:64-f80:128-n8:16:32:64-S128"
target triple = "x86_64-pc-linux-gnu"

@.str = private unnamed_addr constant [7 x i8] c"%d%d%d\00", align 1
@.str.1 = private unnamed_addr constant [4 x i8] c"%d\0A\00", align 1

; Function Attrs: noinline nounwind uwtable
define dso_local i32 @main() #0 {
  %1 = alloca i32, align 4
  %2 = alloca i32, align 4
  %3 = alloca i32, align 4
  %4 = alloca i32, align 4
  %5 = alloca i32, align 4
  %6 = alloca i32, align 4
  store i32 0, i32* %1, align 4
  store i32 0, i32* %5, align 4
  store i32 0, i32* %6, align 4
  %7 = call i32 (i8*, ...) @__isoc99_scanf(i8* getelementptr inbounds ([7 x i8], [7 x i8]* @.str, i64 0, i64 0), i32* %2, i32* %3, i32* %4)
  br label %8

8:                                                ; preds = %85, %0
  %9 = load i32, i32* %5, align 4
  %10 = icmp eq i32 %9, 1
  br i1 %10, label %29, label %11

11:                                               ; preds = %8
  %12 = load i32, i32* %5, align 4
  %13 = icmp eq i32 %12, 3
  br i1 %13, label %29, label %14

14:                                               ; preds = %11
  %15 = load i32, i32* %5, align 4
  %16 = icmp eq i32 %15, 5
  br i1 %16, label %29, label %17

17:                                               ; preds = %14
  %18 = load i32, i32* %5, align 4
  %19 = icmp eq i32 %18, 7
  br i1 %19, label %29, label %20

20:                                               ; preds = %17
  %21 = load i32, i32* %5, align 4
  %22 = icmp eq i32 %21, 8
  br i1 %22, label %29, label %23

23:                                               ; preds = %20
  %24 = load i32, i32* %5, align 4
  %25 = icmp eq i32 %24, 10
  br i1 %25, label %29, label %26

26:                                               ; preds = %23
  %27 = load i32, i32* %5, align 4
  %28 = icmp eq i32 %27, 12
  br i1 %28, label %29, label %32

29:                                               ; preds = %26, %23, %20, %17, %14, %11, %8
  %30 = load i32, i32* %6, align 4
  %31 = add nsw i32 %30, 31
  store i32 %31, i32* %6, align 4
  br label %82

32:                                               ; preds = %26
  %33 = load i32, i32* %5, align 4
  %34 = icmp eq i32 %33, 4
  br i1 %34, label %44, label %35

35:                                               ; preds = %32
  %36 = load i32, i32* %5, align 4
  %37 = icmp eq i32 %36, 6
  br i1 %37, label %44, label %38

38:                                               ; preds = %35
  %39 = load i32, i32* %5, align 4
  %40 = icmp eq i32 %39, 9
  br i1 %40, label %44, label %41

41:                                               ; preds = %38
  %42 = load i32, i32* %5, align 4
  %43 = icmp eq i32 %42, 11
  br i1 %43, label %44, label %47

44:                                               ; preds = %41, %38, %35, %32
  %45 = load i32, i32* %6, align 4
  %46 = add nsw i32 %45, 30
  store i32 %46, i32* %6, align 4
  br label %81

47:                                               ; preds = %41
  %48 = load i32, i32* %2, align 4
  %49 = srem i32 %48, 4
  %50 = icmp eq i32 %49, 0
  br i1 %50, label %51, label %55

51:                                               ; preds = %47
  %52 = load i32, i32* %2, align 4
  %53 = srem i32 %52, 100
  %54 = icmp ne i32 %53, 0
  br i1 %54, label %59, label %55

55:                                               ; preds = %51, %47
  %56 = load i32, i32* %2, align 4
  %57 = srem i32 %56, 400
  %58 = icmp eq i32 %57, 0
  br i1 %58, label %59, label %65

59:                                               ; preds = %55, %51
  %60 = load i32, i32* %5, align 4
  %61 = icmp eq i32 %60, 2
  br i1 %61, label %62, label %65

62:                                               ; preds = %59
  %63 = load i32, i32* %6, align 4
  %64 = add nsw i32 %63, 29
  store i32 %64, i32* %6, align 4
  br label %80

65:                                               ; preds = %59, %55
  %66 = load i32, i32* %2, align 4
  %67 = srem i32 %66, 4
  %68 = icmp ne i32 %67, 0
  br i1 %68, label %73, label %69

69:                                               ; preds = %65
  %70 = load i32, i32* %2, align 4
  %71 = srem i32 %70, 100
  %72 = icmp eq i32 %71, 0
  br i1 %72, label %73, label %79

73:                                               ; preds = %69, %65
  %74 = load i32, i32* %5, align 4
  %75 = icmp eq i32 %74, 2
  br i1 %75, label %76, label %79

76:                                               ; preds = %73
  %77 = load i32, i32* %6, align 4
  %78 = add nsw i32 %77, 28
  store i32 %78, i32* %6, align 4
  br label %79

79:                                               ; preds = %76, %73, %69
  br label %80

80:                                               ; preds = %79, %62
  br label %81

81:                                               ; preds = %80, %44
  br label %82

82:                                               ; preds = %81, %29
  %83 = load i32, i32* %5, align 4
  %84 = add nsw i32 %83, 1
  store i32 %84, i32* %5, align 4
  br label %85

85:                                               ; preds = %82
  %86 = load i32, i32* %5, align 4
  %87 = load i32, i32* %3, align 4
  %88 = icmp slt i32 %86, %87
  br i1 %88, label %8, label %89

89:                                               ; preds = %85
  %90 = load i32, i32* %6, align 4
  %91 = load i32, i32* %4, align 4
  %92 = add nsw i32 %90, %91
  store i32 %92, i32* %6, align 4
  %93 = load i32, i32* %6, align 4
  %94 = call i32 (i8*, ...) @printf(i8* getelementptr inbounds ([4 x i8], [4 x i8]* @.str.1, i64 0, i64 0), i32 %93)
  ret i32 0
}

declare dso_local i32 @__isoc99_scanf(i8*, ...) #1

declare dso_local i32 @printf(i8*, ...) #1


!llvm.module.flags = !{!0}
!llvm.ident = !{!1}

!0 = !{i32 1, !"wchar_size", i32 4}
!1 = !{!"clang version 10.0.0-4ubuntu1 "}
